ARM GAS  C:\Users\214016~1\AppData\Local\Temp\cc6QOYef.s 			page 1


   1              		.syntax unified
   2              		.cpu cortex-m3
   3              		.fpu softvfp
   4              		.eabi_attribute 20, 1
   5              		.eabi_attribute 21, 1
   6              		.eabi_attribute 23, 3
   7              		.eabi_attribute 24, 1
   8              		.eabi_attribute 25, 1
   9              		.eabi_attribute 26, 1
  10              		.eabi_attribute 30, 6
  11              		.eabi_attribute 34, 1
  12              		.eabi_attribute 18, 4
  13              		.thumb
  14              		.file	"main.c"
  15              		.text
  16              	.Ltext0:
  17              		.cfi_sections	.debug_frame
  18              		.comm	screen_buffer,6,4
  19              		.section	.text.main,"ax",%progbits
  20              		.align	2
  21              		.global	main
  22              		.thumb
  23              		.thumb_func
  24              		.type	main, %function
  25              	main:
  26              	.LFB56:
  27              		.file 1 ".\\main.c"
   1:.\main.c      **** /* ========================================
   2:.\main.c      ****  *
   3:.\main.c      ****  * Copyright YOUR COMPANY, THE YEAR
   4:.\main.c      ****  * All Rights Reserved
   5:.\main.c      ****  * UNPUBLISHED, LICENSED SOFTWARE.
   6:.\main.c      ****  *
   7:.\main.c      ****  * CONFIDENTIAL AND PROPRIETARY INFORMATION
   8:.\main.c      ****  * WHICH IS THE PROPERTY OF your company.
   9:.\main.c      ****  *
  10:.\main.c      ****  * ========================================
  11:.\main.c      **** */
  12:.\main.c      **** #include <project.h>
  13:.\main.c      **** #define DMA_1_BYTES_PER_BURST 127
  14:.\main.c      **** #define DMA_1_REQUEST_PER_BURST 0
  15:.\main.c      **** #define DMA_1_SRC_BASE (CYDEV_PERIPH_BASE)
  16:.\main.c      **** #define DMA_1_DST_BASE (CYDEV_SRAM_BASE)
  17:.\main.c      **** /*define for the number of samples to be transferred to memory on each switch press*/
  18:.\main.c      **** #define NO_OF_SAMPLES 3
  19:.\main.c      **** uint16 screen_buffer[NO_OF_SAMPLES];
  20:.\main.c      **** 
  21:.\main.c      **** int main()
  22:.\main.c      **** {
  28              		.loc 1 22 0
  29              		.cfi_startproc
  30              		@ args = 0, pretend = 0, frame = 8
  31              		@ frame_needed = 1, uses_anonymous_args = 0
  32 0000 80B5     		push	{r7, lr}
  33              	.LCFI0:
  34              		.cfi_def_cfa_offset 8
  35              		.cfi_offset 7, -8
ARM GAS  C:\Users\214016~1\AppData\Local\Temp\cc6QOYef.s 			page 2


  36              		.cfi_offset 14, -4
  37 0002 82B0     		sub	sp, sp, #8
  38              	.LCFI1:
  39              		.cfi_def_cfa_offset 16
  40 0004 00AF     		add	r7, sp, #0
  41              	.LCFI2:
  42              		.cfi_def_cfa_register 7
  23:.\main.c      ****     /* Place your initialization/startup code here (e.g. MyInst_Start()) */
  24:.\main.c      **** /* Variable declarations for DMA_1 */
  25:.\main.c      **** /* Move these variable declarations to the top of the function */
  26:.\main.c      **** uint8 DMA_1_Chan;
  27:.\main.c      **** uint8 DMA_1_TD[3];
  28:.\main.c      **** 
  29:.\main.c      **** /* DMA Configuration for DMA_1 */
  30:.\main.c      **** #define DMA_1_BYTES_PER_BURST 2
  31:.\main.c      **** #define DMA_1_REQUEST_PER_BURST 1
  32:.\main.c      **** #define DMA_1_SRC_BASE (CYDEV_PERIPH_BASE)
  33:.\main.c      **** #define DMA_1_DST_BASE (CYDEV_SRAM_BASE)
  34:.\main.c      **** /*define for the number of samples to be transferred to memory on each switch press*/
  35:.\main.c      **** #define NO_OF_SAMPLES 3
  36:.\main.c      **** DMA_1_Chan = DMA_1_DmaInitialize(DMA_1_BYTES_PER_BURST, DMA_1_REQUEST_PER_BURST, 
  43              		.loc 1 36 0
  44 0006 4FF00200 		mov	r0, #2
  45 000a 4FF00101 		mov	r1, #1
  46 000e 4FF48042 		mov	r2, #16384
  47 0012 41F6FF73 		movw	r3, #8191
  48 0016 FFF7FEFF 		bl	DMA_1_DmaInitialize
  49 001a 0346     		mov	r3, r0
  50 001c FB71     		strb	r3, [r7, #7]
  37:.\main.c      ****     HI16(DMA_1_SRC_BASE), HI16(DMA_1_DST_BASE));
  38:.\main.c      **** DMA_1_TD[0] = CyDmaTdAllocate();
  51              		.loc 1 38 0
  52 001e FFF7FEFF 		bl	CyDmaTdAllocate
  53 0022 0346     		mov	r3, r0
  54 0024 3B71     		strb	r3, [r7, #4]
  39:.\main.c      **** DMA_1_TD[1] = CyDmaTdAllocate();
  55              		.loc 1 39 0
  56 0026 FFF7FEFF 		bl	CyDmaTdAllocate
  57 002a 0346     		mov	r3, r0
  58 002c 7B71     		strb	r3, [r7, #5]
  40:.\main.c      **** DMA_1_TD[2] = CyDmaTdAllocate();
  59              		.loc 1 40 0
  60 002e FFF7FEFF 		bl	CyDmaTdAllocate
  61 0032 0346     		mov	r3, r0
  62 0034 BB71     		strb	r3, [r7, #6]
  41:.\main.c      **** CyDmaTdSetConfiguration(DMA_1_TD[0], 2, DMA_1_TD[1], TD_INC_DST_ADR | TD_AUTO_EXEC_NEXT);
  63              		.loc 1 41 0
  64 0036 3A79     		ldrb	r2, [r7, #4]	@ zero_extendqisi2
  65 0038 7B79     		ldrb	r3, [r7, #5]	@ zero_extendqisi2
  66 003a 1046     		mov	r0, r2
  67 003c 4FF00201 		mov	r1, #2
  68 0040 1A46     		mov	r2, r3
  69 0042 4FF02203 		mov	r3, #34
  70 0046 FFF7FEFF 		bl	CyDmaTdSetConfiguration
  42:.\main.c      **** CyDmaTdSetConfiguration(DMA_1_TD[1], 2, DMA_1_TD[2], TD_INC_DST_ADR | TD_AUTO_EXEC_NEXT);
  71              		.loc 1 42 0
  72 004a 7A79     		ldrb	r2, [r7, #5]	@ zero_extendqisi2
ARM GAS  C:\Users\214016~1\AppData\Local\Temp\cc6QOYef.s 			page 3


  73 004c BB79     		ldrb	r3, [r7, #6]	@ zero_extendqisi2
  74 004e 1046     		mov	r0, r2
  75 0050 4FF00201 		mov	r1, #2
  76 0054 1A46     		mov	r2, r3
  77 0056 4FF02203 		mov	r3, #34
  78 005a FFF7FEFF 		bl	CyDmaTdSetConfiguration
  43:.\main.c      **** CyDmaTdSetConfiguration(DMA_1_TD[2], 2, DMA_1_TD[0], DMA_1__TD_TERMOUT_EN | TD_INC_DST_ADR);
  79              		.loc 1 43 0
  80 005e BA79     		ldrb	r2, [r7, #6]	@ zero_extendqisi2
  81 0060 3B79     		ldrb	r3, [r7, #4]	@ zero_extendqisi2
  82 0062 1046     		mov	r0, r2
  83 0064 4FF00201 		mov	r1, #2
  84 0068 1A46     		mov	r2, r3
  85 006a 4FF00203 		mov	r3, #2
  86 006e FFF7FEFF 		bl	CyDmaTdSetConfiguration
  44:.\main.c      **** CyDmaTdSetAddress(DMA_1_TD[0], LO16((uint32)ShiftReg_1_SHIFT_REG_VALUE_LSB_PTR), LO16((uint32)scree
  87              		.loc 1 44 0
  88 0072 3A79     		ldrb	r2, [r7, #4]	@ zero_extendqisi2
  89 0074 40F20003 		movw	r3, #:lower16:screen_buffer
  90 0078 C0F20003 		movt	r3, #:upper16:screen_buffer
  91 007c 9BB2     		uxth	r3, r3
  92 007e 1046     		mov	r0, r2
  93 0080 46F21851 		movw	r1, #25880
  94 0084 1A46     		mov	r2, r3
  95 0086 FFF7FEFF 		bl	CyDmaTdSetAddress
  45:.\main.c      **** CyDmaTdSetAddress(DMA_1_TD[1], LO16((uint32)ShiftReg_2_SHIFT_REG_VALUE_LSB_PTR), LO16((uint32)scree
  96              		.loc 1 45 0
  97 008a 7A79     		ldrb	r2, [r7, #5]	@ zero_extendqisi2
  98 008c 40F20003 		movw	r3, #:lower16:screen_buffer
  99 0090 C0F20003 		movt	r3, #:upper16:screen_buffer
 100 0094 9BB2     		uxth	r3, r3
 101 0096 1046     		mov	r0, r2
 102 0098 46F21651 		movw	r1, #25878
 103 009c 1A46     		mov	r2, r3
 104 009e FFF7FEFF 		bl	CyDmaTdSetAddress
  46:.\main.c      **** CyDmaTdSetAddress(DMA_1_TD[2], LO16((uint32)ShiftReg_3_SHIFT_REG_VALUE_LSB_PTR), LO16((uint32)scree
 105              		.loc 1 46 0
 106 00a2 BA79     		ldrb	r2, [r7, #6]	@ zero_extendqisi2
 107 00a4 40F20003 		movw	r3, #:lower16:screen_buffer
 108 00a8 C0F20003 		movt	r3, #:upper16:screen_buffer
 109 00ac 9BB2     		uxth	r3, r3
 110 00ae 1046     		mov	r0, r2
 111 00b0 46F21451 		movw	r1, #25876
 112 00b4 1A46     		mov	r2, r3
 113 00b6 FFF7FEFF 		bl	CyDmaTdSetAddress
  47:.\main.c      **** CyDmaChSetInitialTd(DMA_1_Chan, DMA_1_TD[0]);
 114              		.loc 1 47 0
 115 00ba 3B79     		ldrb	r3, [r7, #4]	@ zero_extendqisi2
 116 00bc FA79     		ldrb	r2, [r7, #7]	@ zero_extendqisi2
 117 00be 1046     		mov	r0, r2
 118 00c0 1946     		mov	r1, r3
 119 00c2 FFF7FEFF 		bl	CyDmaChSetInitialTd
  48:.\main.c      **** CyDmaChEnable(DMA_1_Chan, 1);
 120              		.loc 1 48 0
 121 00c6 FB79     		ldrb	r3, [r7, #7]	@ zero_extendqisi2
 122 00c8 1846     		mov	r0, r3
 123 00ca 4FF00101 		mov	r1, #1
ARM GAS  C:\Users\214016~1\AppData\Local\Temp\cc6QOYef.s 			page 4


 124 00ce FFF7FEFF 		bl	CyDmaChEnable
 125              	.L2:
  49:.\main.c      **** 
  50:.\main.c      **** 	
  51:.\main.c      **** 	
  52:.\main.c      **** 	
  53:.\main.c      ****     /* CyGlobalIntEnable; */ /* Uncomment this line to enable global interrupts. */
  54:.\main.c      ****     for(;;)
  55:.\main.c      ****     {
  56:.\main.c      ****  
  57:.\main.c      ****    /* Place your application code here. */
  58:.\main.c      ****     }
 126              		.loc 1 58 0 discriminator 1
 127 00d2 FEE7     		b	.L2
 128              		.cfi_endproc
 129              	.LFE56:
 130              		.size	main, .-main
 131              		.text
 132              	.Letext0:
 133              		.file 2 "c:\\program files (x86)\\cypress\\psoc creator\\3.0\\psoc creator\\import\\gnu_cs\\arm\\4
 134              		.file 3 "./Generated_Source/PSoC5/cytypes.h"
 135              		.file 4 "./Generated_Source/PSoC5/core_cm3.h"