ARM GAS  C:\Users\214016~1\AppData\Local\Temp\ccPUxWgC.s 			page 1


   1              		.syntax unified
   2              		.cpu cortex-m3
   3              		.fpu softvfp
   4              		.eabi_attribute 20, 1
   5              		.eabi_attribute 21, 1
   6              		.eabi_attribute 23, 3
   7              		.eabi_attribute 24, 1
   8              		.eabi_attribute 25, 1
   9              		.eabi_attribute 26, 1
  10              		.eabi_attribute 30, 6
  11              		.eabi_attribute 34, 1
  12              		.eabi_attribute 18, 4
  13              		.thumb
  14              		.file	"ShiftReg_2_PM.c"
  15              		.text
  16              	.Ltext0:
  17              		.cfi_sections	.debug_frame
  18              		.bss
  19              		.align	2
  20              	ShiftReg_2_backup:
  21 0000 00000000 		.space	6
  21      0000
  22 0006 0000     		.section	.text.ShiftReg_2_SaveConfig,"ax",%progbits
  23              		.align	2
  24              		.global	ShiftReg_2_SaveConfig
  25              		.thumb
  26              		.thumb_func
  27              		.type	ShiftReg_2_SaveConfig, %function
  28              	ShiftReg_2_SaveConfig:
  29              	.LFB0:
  30              		.file 1 ".\\Generated_Source\\PSoC5\\ShiftReg_2_PM.c"
   1:.\Generated_Source\PSoC5/ShiftReg_2_PM.c **** /*******************************************************************************
   2:.\Generated_Source\PSoC5/ShiftReg_2_PM.c **** * File Name: ShiftReg_2_PM.c
   3:.\Generated_Source\PSoC5/ShiftReg_2_PM.c **** * Version 2.30
   4:.\Generated_Source\PSoC5/ShiftReg_2_PM.c **** *
   5:.\Generated_Source\PSoC5/ShiftReg_2_PM.c **** * Description:
   6:.\Generated_Source\PSoC5/ShiftReg_2_PM.c **** *  This file provides the API source code for sleep mode support for Shift
   7:.\Generated_Source\PSoC5/ShiftReg_2_PM.c **** *  Register component.
   8:.\Generated_Source\PSoC5/ShiftReg_2_PM.c **** *
   9:.\Generated_Source\PSoC5/ShiftReg_2_PM.c **** * Note:
  10:.\Generated_Source\PSoC5/ShiftReg_2_PM.c **** *
  11:.\Generated_Source\PSoC5/ShiftReg_2_PM.c **** ********************************************************************************
  12:.\Generated_Source\PSoC5/ShiftReg_2_PM.c **** * Copyright 2008-2013, Cypress Semiconductor Corporation.  All rights reserved.
  13:.\Generated_Source\PSoC5/ShiftReg_2_PM.c **** * You may use this file only in accordance with the license, terms, conditions,
  14:.\Generated_Source\PSoC5/ShiftReg_2_PM.c **** * disclaimers, and limitations in the end user license agreement accompanying
  15:.\Generated_Source\PSoC5/ShiftReg_2_PM.c **** * the software package with which this file was provided.
  16:.\Generated_Source\PSoC5/ShiftReg_2_PM.c **** *******************************************************************************/
  17:.\Generated_Source\PSoC5/ShiftReg_2_PM.c **** 
  18:.\Generated_Source\PSoC5/ShiftReg_2_PM.c **** #include "ShiftReg_2.h"
  19:.\Generated_Source\PSoC5/ShiftReg_2_PM.c **** 
  20:.\Generated_Source\PSoC5/ShiftReg_2_PM.c **** static ShiftReg_2_BACKUP_STRUCT ShiftReg_2_backup =
  21:.\Generated_Source\PSoC5/ShiftReg_2_PM.c **** {
  22:.\Generated_Source\PSoC5/ShiftReg_2_PM.c ****     ShiftReg_2_DISABLED,
  23:.\Generated_Source\PSoC5/ShiftReg_2_PM.c **** 
  24:.\Generated_Source\PSoC5/ShiftReg_2_PM.c ****     ((uint16) ShiftReg_2_DEFAULT_A0),
  25:.\Generated_Source\PSoC5/ShiftReg_2_PM.c ****     ((uint16) ShiftReg_2_DEFAULT_A1),
  26:.\Generated_Source\PSoC5/ShiftReg_2_PM.c **** 
ARM GAS  C:\Users\214016~1\AppData\Local\Temp\ccPUxWgC.s 			page 2


  27:.\Generated_Source\PSoC5/ShiftReg_2_PM.c ****     #if(CY_UDB_V0)
  28:.\Generated_Source\PSoC5/ShiftReg_2_PM.c ****         ((uint16) ShiftReg_2_INT_SRC),
  29:.\Generated_Source\PSoC5/ShiftReg_2_PM.c ****     #endif /* (CY_UDB_V0) */
  30:.\Generated_Source\PSoC5/ShiftReg_2_PM.c **** };
  31:.\Generated_Source\PSoC5/ShiftReg_2_PM.c **** 
  32:.\Generated_Source\PSoC5/ShiftReg_2_PM.c **** 
  33:.\Generated_Source\PSoC5/ShiftReg_2_PM.c **** /*******************************************************************************
  34:.\Generated_Source\PSoC5/ShiftReg_2_PM.c **** * Function Name: ShiftReg_2_SaveConfig
  35:.\Generated_Source\PSoC5/ShiftReg_2_PM.c **** ********************************************************************************
  36:.\Generated_Source\PSoC5/ShiftReg_2_PM.c **** *
  37:.\Generated_Source\PSoC5/ShiftReg_2_PM.c **** * Summary:
  38:.\Generated_Source\PSoC5/ShiftReg_2_PM.c **** *  Saves Shift Register configuration.
  39:.\Generated_Source\PSoC5/ShiftReg_2_PM.c **** *
  40:.\Generated_Source\PSoC5/ShiftReg_2_PM.c **** * Parameters:
  41:.\Generated_Source\PSoC5/ShiftReg_2_PM.c **** *  None.
  42:.\Generated_Source\PSoC5/ShiftReg_2_PM.c **** *
  43:.\Generated_Source\PSoC5/ShiftReg_2_PM.c **** * Return:
  44:.\Generated_Source\PSoC5/ShiftReg_2_PM.c **** *  None.
  45:.\Generated_Source\PSoC5/ShiftReg_2_PM.c **** *
  46:.\Generated_Source\PSoC5/ShiftReg_2_PM.c **** * Reentrant:
  47:.\Generated_Source\PSoC5/ShiftReg_2_PM.c **** *  No.
  48:.\Generated_Source\PSoC5/ShiftReg_2_PM.c **** *
  49:.\Generated_Source\PSoC5/ShiftReg_2_PM.c **** *******************************************************************************/
  50:.\Generated_Source\PSoC5/ShiftReg_2_PM.c **** void ShiftReg_2_SaveConfig(void) 
  51:.\Generated_Source\PSoC5/ShiftReg_2_PM.c **** {
  31              		.loc 1 51 0
  32              		.cfi_startproc
  33              		@ args = 0, pretend = 0, frame = 0
  34              		@ frame_needed = 1, uses_anonymous_args = 0
  35              		@ link register save eliminated.
  36 0000 80B4     		push	{r7}
  37              	.LCFI0:
  38              		.cfi_def_cfa_offset 4
  39              		.cfi_offset 7, -4
  40 0002 00AF     		add	r7, sp, #0
  41              	.LCFI1:
  42              		.cfi_def_cfa_register 7
  52:.\Generated_Source\PSoC5/ShiftReg_2_PM.c ****     /* Store working registers A0 and A1 */
  53:.\Generated_Source\PSoC5/ShiftReg_2_PM.c ****     ShiftReg_2_backup.saveSrA0Reg   = CY_GET_REG16(ShiftReg_2_SHIFT_REG_LSB_PTR);
  43              		.loc 1 53 0
  44 0004 46F20443 		movw	r3, #25604
  45 0008 C4F20003 		movt	r3, 16384
  46 000c 1B88     		ldrh	r3, [r3, #0]	@ movhi
  47 000e 9AB2     		uxth	r2, r3
  48 0010 40F20003 		movw	r3, #:lower16:ShiftReg_2_backup
  49 0014 C0F20003 		movt	r3, #:upper16:ShiftReg_2_backup
  50 0018 5A80     		strh	r2, [r3, #2]	@ movhi
  54:.\Generated_Source\PSoC5/ShiftReg_2_PM.c ****     ShiftReg_2_backup.saveSrA1Reg   = CY_GET_REG16(ShiftReg_2_SHIFT_REG_VALUE_LSB_PTR);
  51              		.loc 1 54 0
  52 001a 46F21443 		movw	r3, #25620
  53 001e C4F20003 		movt	r3, 16384
  54 0022 1B88     		ldrh	r3, [r3, #0]	@ movhi
  55 0024 9AB2     		uxth	r2, r3
  56 0026 40F20003 		movw	r3, #:lower16:ShiftReg_2_backup
  57 002a C0F20003 		movt	r3, #:upper16:ShiftReg_2_backup
  58 002e 9A80     		strh	r2, [r3, #4]	@ movhi
  55:.\Generated_Source\PSoC5/ShiftReg_2_PM.c **** 
ARM GAS  C:\Users\214016~1\AppData\Local\Temp\ccPUxWgC.s 			page 3


  56:.\Generated_Source\PSoC5/ShiftReg_2_PM.c ****     #if(CY_UDB_V0)
  57:.\Generated_Source\PSoC5/ShiftReg_2_PM.c ****         ShiftReg_2_backup.saveSrIntMask = ShiftReg_2_SR_STATUS_MASK;
  58:.\Generated_Source\PSoC5/ShiftReg_2_PM.c ****     #endif /* (CY_UDB_V0) */
  59:.\Generated_Source\PSoC5/ShiftReg_2_PM.c **** }
  59              		.loc 1 59 0
  60 0030 BD46     		mov	sp, r7
  61 0032 80BC     		pop	{r7}
  62 0034 7047     		bx	lr
  63              		.cfi_endproc
  64              	.LFE0:
  65              		.size	ShiftReg_2_SaveConfig, .-ShiftReg_2_SaveConfig
  66 0036 00BF     		.section	.text.ShiftReg_2_RestoreConfig,"ax",%progbits
  67              		.align	2
  68              		.global	ShiftReg_2_RestoreConfig
  69              		.thumb
  70              		.thumb_func
  71              		.type	ShiftReg_2_RestoreConfig, %function
  72              	ShiftReg_2_RestoreConfig:
  73              	.LFB1:
  60:.\Generated_Source\PSoC5/ShiftReg_2_PM.c **** 
  61:.\Generated_Source\PSoC5/ShiftReg_2_PM.c **** 
  62:.\Generated_Source\PSoC5/ShiftReg_2_PM.c **** /*******************************************************************************
  63:.\Generated_Source\PSoC5/ShiftReg_2_PM.c **** * Function Name: ShiftReg_2_RestoreConfig
  64:.\Generated_Source\PSoC5/ShiftReg_2_PM.c **** ********************************************************************************
  65:.\Generated_Source\PSoC5/ShiftReg_2_PM.c **** *
  66:.\Generated_Source\PSoC5/ShiftReg_2_PM.c **** * Summary:
  67:.\Generated_Source\PSoC5/ShiftReg_2_PM.c **** *  Restores Shift Register configuration.
  68:.\Generated_Source\PSoC5/ShiftReg_2_PM.c **** *
  69:.\Generated_Source\PSoC5/ShiftReg_2_PM.c **** * Parameters:
  70:.\Generated_Source\PSoC5/ShiftReg_2_PM.c **** *  None.
  71:.\Generated_Source\PSoC5/ShiftReg_2_PM.c **** *
  72:.\Generated_Source\PSoC5/ShiftReg_2_PM.c **** * Return:
  73:.\Generated_Source\PSoC5/ShiftReg_2_PM.c **** *  None.
  74:.\Generated_Source\PSoC5/ShiftReg_2_PM.c **** *
  75:.\Generated_Source\PSoC5/ShiftReg_2_PM.c **** *******************************************************************************/
  76:.\Generated_Source\PSoC5/ShiftReg_2_PM.c **** void ShiftReg_2_RestoreConfig(void) 
  77:.\Generated_Source\PSoC5/ShiftReg_2_PM.c **** {
  74              		.loc 1 77 0
  75              		.cfi_startproc
  76              		@ args = 0, pretend = 0, frame = 0
  77              		@ frame_needed = 1, uses_anonymous_args = 0
  78              		@ link register save eliminated.
  79 0000 80B4     		push	{r7}
  80              	.LCFI2:
  81              		.cfi_def_cfa_offset 4
  82              		.cfi_offset 7, -4
  83 0002 00AF     		add	r7, sp, #0
  84              	.LCFI3:
  85              		.cfi_def_cfa_register 7
  78:.\Generated_Source\PSoC5/ShiftReg_2_PM.c ****     /* Restore working registers A0 and A1 */
  79:.\Generated_Source\PSoC5/ShiftReg_2_PM.c ****     CY_SET_REG16(ShiftReg_2_SHIFT_REG_LSB_PTR, ShiftReg_2_backup.saveSrA0Reg);
  86              		.loc 1 79 0
  87 0004 46F20443 		movw	r3, #25604
  88 0008 C4F20003 		movt	r3, 16384
  89 000c 40F20002 		movw	r2, #:lower16:ShiftReg_2_backup
  90 0010 C0F20002 		movt	r2, #:upper16:ShiftReg_2_backup
  91 0014 5288     		ldrh	r2, [r2, #2]
ARM GAS  C:\Users\214016~1\AppData\Local\Temp\ccPUxWgC.s 			page 4


  92 0016 1A80     		strh	r2, [r3, #0]	@ movhi
  80:.\Generated_Source\PSoC5/ShiftReg_2_PM.c ****     CY_SET_REG16(ShiftReg_2_SHIFT_REG_VALUE_LSB_PTR, ShiftReg_2_backup.saveSrA1Reg);
  93              		.loc 1 80 0
  94 0018 46F21443 		movw	r3, #25620
  95 001c C4F20003 		movt	r3, 16384
  96 0020 40F20002 		movw	r2, #:lower16:ShiftReg_2_backup
  97 0024 C0F20002 		movt	r2, #:upper16:ShiftReg_2_backup
  98 0028 9288     		ldrh	r2, [r2, #4]
  99 002a 1A80     		strh	r2, [r3, #0]	@ movhi
  81:.\Generated_Source\PSoC5/ShiftReg_2_PM.c **** 
  82:.\Generated_Source\PSoC5/ShiftReg_2_PM.c ****     #if(CY_UDB_V0)
  83:.\Generated_Source\PSoC5/ShiftReg_2_PM.c ****         ShiftReg_2_SR_STATUS_MASK = ((uint8) ShiftReg_2_backup.saveSrIntMask);
  84:.\Generated_Source\PSoC5/ShiftReg_2_PM.c ****     #endif /* (CY_UDB_V0) */
  85:.\Generated_Source\PSoC5/ShiftReg_2_PM.c **** }
 100              		.loc 1 85 0
 101 002c BD46     		mov	sp, r7
 102 002e 80BC     		pop	{r7}
 103 0030 7047     		bx	lr
 104              		.cfi_endproc
 105              	.LFE1:
 106              		.size	ShiftReg_2_RestoreConfig, .-ShiftReg_2_RestoreConfig
 107 0032 00BF     		.section	.text.ShiftReg_2_Sleep,"ax",%progbits
 108              		.align	2
 109              		.global	ShiftReg_2_Sleep
 110              		.thumb
 111              		.thumb_func
 112              		.type	ShiftReg_2_Sleep, %function
 113              	ShiftReg_2_Sleep:
 114              	.LFB2:
  86:.\Generated_Source\PSoC5/ShiftReg_2_PM.c **** 
  87:.\Generated_Source\PSoC5/ShiftReg_2_PM.c **** 
  88:.\Generated_Source\PSoC5/ShiftReg_2_PM.c **** /*******************************************************************************
  89:.\Generated_Source\PSoC5/ShiftReg_2_PM.c **** * Function Name: ShiftReg_2_Sleep
  90:.\Generated_Source\PSoC5/ShiftReg_2_PM.c **** ********************************************************************************
  91:.\Generated_Source\PSoC5/ShiftReg_2_PM.c **** *
  92:.\Generated_Source\PSoC5/ShiftReg_2_PM.c **** * Summary:
  93:.\Generated_Source\PSoC5/ShiftReg_2_PM.c **** *  Prepare the component to enter a Sleep mode.
  94:.\Generated_Source\PSoC5/ShiftReg_2_PM.c **** *
  95:.\Generated_Source\PSoC5/ShiftReg_2_PM.c **** * Parameters:
  96:.\Generated_Source\PSoC5/ShiftReg_2_PM.c **** *  None.
  97:.\Generated_Source\PSoC5/ShiftReg_2_PM.c **** *
  98:.\Generated_Source\PSoC5/ShiftReg_2_PM.c **** * Return:
  99:.\Generated_Source\PSoC5/ShiftReg_2_PM.c **** *  None.
 100:.\Generated_Source\PSoC5/ShiftReg_2_PM.c **** *
 101:.\Generated_Source\PSoC5/ShiftReg_2_PM.c **** * Reentrant:
 102:.\Generated_Source\PSoC5/ShiftReg_2_PM.c **** *  No.
 103:.\Generated_Source\PSoC5/ShiftReg_2_PM.c **** *
 104:.\Generated_Source\PSoC5/ShiftReg_2_PM.c **** *******************************************************************************/
 105:.\Generated_Source\PSoC5/ShiftReg_2_PM.c **** void ShiftReg_2_Sleep(void) 
 106:.\Generated_Source\PSoC5/ShiftReg_2_PM.c **** {
 115              		.loc 1 106 0
 116              		.cfi_startproc
 117              		@ args = 0, pretend = 0, frame = 0
 118              		@ frame_needed = 1, uses_anonymous_args = 0
 119 0000 80B5     		push	{r7, lr}
 120              	.LCFI4:
 121              		.cfi_def_cfa_offset 8
ARM GAS  C:\Users\214016~1\AppData\Local\Temp\ccPUxWgC.s 			page 5


 122              		.cfi_offset 7, -8
 123              		.cfi_offset 14, -4
 124 0002 00AF     		add	r7, sp, #0
 125              	.LCFI5:
 126              		.cfi_def_cfa_register 7
 107:.\Generated_Source\PSoC5/ShiftReg_2_PM.c ****     ShiftReg_2_backup.enableState = ((uint8) ShiftReg_2_IS_ENABLED);
 127              		.loc 1 107 0
 128 0004 46F27443 		movw	r3, #25716
 129 0008 C4F20003 		movt	r3, 16384
 130 000c 1B78     		ldrb	r3, [r3, #0]
 131 000e DBB2     		uxtb	r3, r3
 132 0010 03F00103 		and	r3, r3, #1
 133 0014 002B     		cmp	r3, #0
 134 0016 0CBF     		ite	eq
 135 0018 0023     		moveq	r3, #0
 136 001a 0123     		movne	r3, #1
 137 001c DBB2     		uxtb	r3, r3
 138 001e 1A46     		mov	r2, r3
 139 0020 40F20003 		movw	r3, #:lower16:ShiftReg_2_backup
 140 0024 C0F20003 		movt	r3, #:upper16:ShiftReg_2_backup
 141 0028 1A70     		strb	r2, [r3, #0]
 108:.\Generated_Source\PSoC5/ShiftReg_2_PM.c **** 
 109:.\Generated_Source\PSoC5/ShiftReg_2_PM.c ****     ShiftReg_2_Stop();
 142              		.loc 1 109 0
 143 002a FFF7FEFF 		bl	ShiftReg_2_Stop
 110:.\Generated_Source\PSoC5/ShiftReg_2_PM.c ****     ShiftReg_2_SaveConfig();
 144              		.loc 1 110 0
 145 002e FFF7FEFF 		bl	ShiftReg_2_SaveConfig
 111:.\Generated_Source\PSoC5/ShiftReg_2_PM.c **** }
 146              		.loc 1 111 0
 147 0032 80BD     		pop	{r7, pc}
 148              		.cfi_endproc
 149              	.LFE2:
 150              		.size	ShiftReg_2_Sleep, .-ShiftReg_2_Sleep
 151              		.section	.text.ShiftReg_2_Wakeup,"ax",%progbits
 152              		.align	2
 153              		.global	ShiftReg_2_Wakeup
 154              		.thumb
 155              		.thumb_func
 156              		.type	ShiftReg_2_Wakeup, %function
 157              	ShiftReg_2_Wakeup:
 158              	.LFB3:
 112:.\Generated_Source\PSoC5/ShiftReg_2_PM.c **** 
 113:.\Generated_Source\PSoC5/ShiftReg_2_PM.c **** 
 114:.\Generated_Source\PSoC5/ShiftReg_2_PM.c **** /*******************************************************************************
 115:.\Generated_Source\PSoC5/ShiftReg_2_PM.c **** * Function Name: ShiftReg_2_Wakeup
 116:.\Generated_Source\PSoC5/ShiftReg_2_PM.c **** ********************************************************************************
 117:.\Generated_Source\PSoC5/ShiftReg_2_PM.c **** *
 118:.\Generated_Source\PSoC5/ShiftReg_2_PM.c **** * Summary:
 119:.\Generated_Source\PSoC5/ShiftReg_2_PM.c **** *  Restores and enables the user configuration.
 120:.\Generated_Source\PSoC5/ShiftReg_2_PM.c **** *
 121:.\Generated_Source\PSoC5/ShiftReg_2_PM.c **** * Parameters:
 122:.\Generated_Source\PSoC5/ShiftReg_2_PM.c **** *  None.
 123:.\Generated_Source\PSoC5/ShiftReg_2_PM.c **** *
 124:.\Generated_Source\PSoC5/ShiftReg_2_PM.c **** * Return:
 125:.\Generated_Source\PSoC5/ShiftReg_2_PM.c **** *  None.
 126:.\Generated_Source\PSoC5/ShiftReg_2_PM.c **** *
ARM GAS  C:\Users\214016~1\AppData\Local\Temp\ccPUxWgC.s 			page 6


 127:.\Generated_Source\PSoC5/ShiftReg_2_PM.c **** *******************************************************************************/
 128:.\Generated_Source\PSoC5/ShiftReg_2_PM.c **** void ShiftReg_2_Wakeup(void) 
 129:.\Generated_Source\PSoC5/ShiftReg_2_PM.c **** {
 159              		.loc 1 129 0
 160              		.cfi_startproc
 161              		@ args = 0, pretend = 0, frame = 0
 162              		@ frame_needed = 1, uses_anonymous_args = 0
 163 0000 80B5     		push	{r7, lr}
 164              	.LCFI6:
 165              		.cfi_def_cfa_offset 8
 166              		.cfi_offset 7, -8
 167              		.cfi_offset 14, -4
 168 0002 00AF     		add	r7, sp, #0
 169              	.LCFI7:
 170              		.cfi_def_cfa_register 7
 130:.\Generated_Source\PSoC5/ShiftReg_2_PM.c ****     ShiftReg_2_RestoreConfig();
 171              		.loc 1 130 0
 172 0004 FFF7FEFF 		bl	ShiftReg_2_RestoreConfig
 131:.\Generated_Source\PSoC5/ShiftReg_2_PM.c **** 
 132:.\Generated_Source\PSoC5/ShiftReg_2_PM.c ****     if(0u != ShiftReg_2_backup.enableState)
 173              		.loc 1 132 0
 174 0008 40F20003 		movw	r3, #:lower16:ShiftReg_2_backup
 175 000c C0F20003 		movt	r3, #:upper16:ShiftReg_2_backup
 176 0010 1B78     		ldrb	r3, [r3, #0]	@ zero_extendqisi2
 177 0012 002B     		cmp	r3, #0
 178 0014 01D0     		beq	.L4
 133:.\Generated_Source\PSoC5/ShiftReg_2_PM.c ****     {
 134:.\Generated_Source\PSoC5/ShiftReg_2_PM.c ****         ShiftReg_2_Enable();
 179              		.loc 1 134 0
 180 0016 FFF7FEFF 		bl	ShiftReg_2_Enable
 181              	.L4:
 135:.\Generated_Source\PSoC5/ShiftReg_2_PM.c ****     }
 136:.\Generated_Source\PSoC5/ShiftReg_2_PM.c **** }
 182              		.loc 1 136 0
 183 001a 80BD     		pop	{r7, pc}
 184              		.cfi_endproc
 185              	.LFE3:
 186              		.size	ShiftReg_2_Wakeup, .-ShiftReg_2_Wakeup
 187              		.text
 188              	.Letext0:
 189              		.file 2 ".\\Generated_Source\\PSoC5\\cytypes.h"
 190              		.file 3 ".\\Generated_Source\\PSoC5\\ShiftReg_2.h"